(inetwork
CollaborationNetwork
p0
(dp1
S'network_computed'
p2
I01
sS'distance'
p3
I0
sS'author_info'
p4
(dp5
sS'G'
p6
ccopy_reg
_reconstructor
p7
(cnetworkx.classes.graph
Graph
p8
c__builtin__
object
p9
Ntp10
Rp11
(dp12
S'node'
p13
(dp14
S'36117782600'
p15
(dp16
sS'6506289108'
p17
(dp18
sS'7006305131'
p19
(dp20
sS'7005223038'
p21
(dp22
sS'55953201400'
p23
(dp24
sS'35769007600'
p25
(dp26
sS'12790529500'
p27
(dp28
sS'55993686500'
p29
(dp30
sS'35563820100'
p31
(dp32
sS'54930265200'
p33
(dp34
sS'56286038700'
p35
(dp36
sS'7003276690'
p37
(dp38
sS'55083848500'
p39
(dp40
sS'36769291700'
p41
(dp42
sS'56013734400'
p43
(dp44
sS'56013731100'
p45
(dp46
sS'7003994908'
p47
(dp48
sS'6701678167'
p49
(dp50
sS'16635924700'
p51
(dp52
sS'37111010900'
p53
(dp54
sS'35105794000'
p55
(dp56
sS'7007113015'
p57
(dp58
sS'55565814100'
p59
(dp60
sS'22836123400'
p61
(dp62
sS'6701753933'
p63
(dp64
sS'55834350900'
p65
(dp66
sS'54790591400'
p67
(dp68
sS'56013555800'
p69
(dp70
sS'7005039283'
p71
(dp72
sS'56263920000'
p73
(dp74
sS'56000433000'
p75
(dp76
sS'6603352903'
p77
(dp78
sS'6603019167'
p79
(dp80
sS'14056435400'
p81
(dp82
sS'24480964400'
p83
(dp84
sS'55971985200'
p85
(dp86
sS'6603448482'
p87
(dp88
sS'14122793300'
p89
(dp90
sS'6603099610'
p91
(dp92
sS'23398643600'
p93
(dp94
sS'6602600705'
p95
(dp96
sS'56282954300'
p97
(dp98
sS'7202714489'
p99
(dp100
sS'56213659900'
p101
(dp102
sS'7103233117'
p103
(dp104
sS'56606293700'
p105
(dp106
sS'8731165100'
p107
(dp108
sS'8931919100'
p109
(dp110
sS'56499391100'
p111
(dp112
sS'12645109800'
p113
(dp114
sS'55919263200'
p115
(dp116
sS'56645636200'
p117
(dp118
sS'6602107290'
p119
(dp120
sS'6506044381'
p121
(dp122
sS'12646275800'
p123
(dp124
sS'55669785100'
p125
(dp126
sS'6603558668'
p127
(dp128
sS'56578186400'
p129
(dp130
sS'57188466400'
p131
(dp132
sS'8591708300'
p133
(dp134
sS'7004350208'
p135
(dp136
sS'6701341986'
p137
(dp138
sS'55836800100'
p139
(dp140
sS'36612415200'
p141
(dp142
sS'7404358777'
p143
(dp144
sS'7004638749'
p145
(dp146
sS'6603281223'
p147
(dp148
sS'36141027800'
p149
(dp150
sS'7003988000'
p151
(dp152
sS'7102898242'
p153
(dp154
sS'7102678794'
p155
(dp156
sS'16302892900'
p157
(dp158
sS'6604079529'
p159
(dp160
sS'55813927700'
p161
(dp162
sS'56273870800'
p163
(dp164
sS'6603913306'
p165
(dp166
sS'37107692000'
p167
(dp168
sS'35449603900'
p169
(dp170
sS'8847635500'
p171
(dp172
sS'12808190200'
p173
(dp174
sS'36802934000'
p175
(dp176
sS'37008053300'
p177
(dp178
sS'23388216300'
p179
(dp180
sS'6603259241'
p181
(dp182
sS'6601997737'
p183
(dp184
sS'55365710800'
p185
(dp186
sS'54792696600'
p187
(dp188
sS'57189925684'
p189
(dp190
sS'6504765315'
p191
(dp192
sS'56240672400'
p193
(dp194
sS'56002701400'
p195
(dp196
sS'24481661700'
p197
(dp198
sS'35500242400'
p199
(dp200
sS'34870304900'
p201
(dp202
sS'10142085000'
p203
(dp204
sS'56577850600'
p205
(dp206
sS'55311462200'
p207
(dp208
sS'56463038900'
p209
(dp210
sS'24171073600'
p211
(dp212
sS'6601963518'
p213
(dp214
sS'54793408300'
p215
(dp216
sS'23393572100'
p217
(dp218
sS'56275482700'
p219
(dp220
sS'7102491865'
p221
(dp222
sS'36118513000'
p223
(dp224
sS'7005508480'
p225
(dp226
sS'7005196123'
p227
(dp228
sS'9279749600'
p229
(dp230
sS'56815189300'
p231
(dp232
sS'18434792900'
p233
(dp234
sS'6507677219'
p235
(dp236
sS'6507877848'
p237
(dp238
sS'7406127185'
p239
(dp240
sS'55439187400'
p241
(dp242
sS'25627741500'
p243
(dp244
sS'24783682300'
p245
(dp246
sS'7103131201'
p247
(dp248
sS'24512697200'
p249
(dp250
sS'35231614000'
p251
(dp252
sS'55943170800'
p253
(dp254
sS'54792735300'
p255
(dp256
sS'56498404900'
p257
(dp258
sS'6601961404'
p259
(dp260
sS'7006843785'
p261
(dp262
sS'56529592100'
p263
(dp264
sS'22985635700'
p265
(dp266
sS'22633541600'
p267
(dp268
sS'50362300700'
p269
(dp270
sS'6603865823'
p271
(dp272
sS'56462355700'
p273
(dp274
sS'36767953900'
p275
(dp276
sS'7004109104'
p277
(dp278
sS'55666758800'
p279
(dp280
sS'7003831371'
p281
(dp282
sS'6507067930'
p283
(dp284
sS'6602359193'
p285
(dp286
sS'26635008000'
p287
(dp288
sS'55995895200'
p289
(dp290
sS'56617469800'
p291
(dp292
sS'56279187000'
p293
(dp294
sS'15053820000'
p295
(dp296
sS'36185888200'
p297
(dp298
sS'55918277800'
p299
(dp300
sS'55835454100'
p301
(dp302
sS'7003578744'
p303
(dp304
sS'12645615700'
p305
(dp306
sS'57188785706'
p307
(dp308
sS'35398324200'
p309
(dp310
sS'36801312200'
p311
(dp312
sS'23397565600'
p313
(dp314
sS'24069354700'
p315
(dp316
sS'55468916100'
p317
(dp318
sS'7004102317'
p319
(dp320
sS'56529154100'
p321
(dp322
sS'7202714547'
p323
(dp324
sS'56243190000'
p325
(dp326
sS'6602520528'
p327
(dp328
sS'22934931200'
p329
(dp330
sS'26032291700'
p331
(dp332
sS'8873261300'
p333
(dp334
sS'6602156986'
p335
(dp336
sS'55439178900'
p337
(dp338
sS'6701644767'
p339
(dp340
sS'7003955521'
p341
(dp342
sS'36769140800'
p343
(dp344
sS'26649581600'
p345
(dp346
sS'22836360800'
p347
(dp348
sS'56013629200'
p349
(dp350
sS'56214201200'
p351
(dp352
sS'15740951000'
p353
(dp354
sS'9276488000'
p355
(dp356
sS'18433818800'
p357
(dp358
sS'56964953300'
p359
(dp360
sS'55909602800'
p361
(dp362
sS'7405453271'
p363
(dp364
sS'55926791100'
p365
(dp366
sS'14321813300'
p367
(dp368
sS'6507677833'
p369
(dp370
sS'36970906400'
p371
(dp372
sS'36117667600'
p373
(dp374
sS'35566511400'
p375
(dp376
sS'56578611900'
p377
(dp378
sS'56440089000'
p379
(dp380
sS'7005243259'
p381
(dp382
sS'6701742363'
p383
(dp384
sS'6506110957'
p385
(dp386
sS'7201961090'
p387
(dp388
sS'56340934200'
p389
(dp390
sS'56578510100'
p391
(dp392
sS'7006733509'
p393
(dp394
sS'7004554323'
p395
(dp396
sS'7404124374'
p397
(dp398
sS'7004174579'
p399
(dp400
sS'7006657985'
p401
(dp402
sS'7006195697'
p403
(dp404
sS'6701488992'
p405
(dp406
ssS'node_dict_factory'
p407
c__builtin__
dict
p408
sS'edge_attr_dict_factory'
p409
g408
sS'edge'
p410
(dp411
g15
(dp412
S'16635924700'
p413
(dp414
S'papers'
p415
c__builtin__
set
p416
((lp417
S'77953485297'
p418
atp419
Rp420
ssS'56013555800'
p421
(dp422
g415
g416
((lp423
S'84864280014'
p424
atp425
Rp426
sssg17
(dp427
S'56240672400'
p428
(dp429
g415
g416
((lp430
S'61849165061'
p431
atp432
Rp433
sssg19
(dp434
S'7004102317'
p435
(dp436
g415
g416
((lp437
S'0036025564'
p438
aS'0035479569'
p439
atp440
Rp441
sssg21
(dp442
g413
(dp443
g415
g416
((lp444
S'67349177082'
p445
atp446
Rp447
ssg421
(dp448
g415
g416
((lp449
S'84928742486'
p450
atp451
Rp452
sssg23
(dp453
g435
(dp454
g415
g416
((lp455
S'0036493489'
p456
atp457
Rp458
sssg25
(dp459
g435
(dp460
g415
g416
((lp461
S'84874232091'
p462
atp463
Rp464
sssg27
(dp465
g435
(dp466
g415
g416
((lp467
g456
atp468
Rp469
sssg29
(dp470
g421
(dp471
g415
g416
((lp472
S'84876895384'
p473
aS'84870031722'
p474
atp475
Rp476
ssg435
(dp477
g415
g416
((lp478
S'84863928388'
p479
aS'84887180138'
p480
aS'84870031722'
p481
aS'84879285642'
p482
atp483
Rp484
sssg31
(dp485
g428
(dp486
g415
g416
((lp487
S'35349007979'
p488
atp489
Rp490
ssg435
(dp491
g415
g416
((lp492
S'35349007979'
p493
aS'33750099707'
p494
atp495
Rp496
sssg33
(dp497
g435
(dp498
g415
g416
((lp499
S'84867973812'
p500
aS'25444525394'
p501
aS'35248897723'
p502
atp503
Rp504
sssg35
(dp505
g421
(dp506
g415
g416
((lp507
S'84939945186'
p508
aS'84945466401'
p509
atp510
Rp511
ssg435
(dp512
g415
g416
((lp513
S'84939945186'
p514
atp515
Rp516
sssg37
(dp517
g435
(dp518
g415
g416
((lp519
S'0942266548'
p520
aS'0037700507'
p521
atp522
Rp523
sssg39
(dp524
g435
(dp525
g415
g416
((lp526
S'84921671610'
p527
aS'84952032021'
p528
atp529
Rp530
sssg41
(dp531
g435
(dp532
g415
g416
((lp533
S'78651271670'
p534
atp535
Rp536
sssg43
(dp537
g421
(dp538
g415
g416
((lp539
S'84887837079'
p540
atp541
Rp542
sssg45
(dp543
g421
(dp544
g415
g416
((lp545
g540
aS'84862582706'
p546
atp547
Rp548
ssg428
(dp549
g415
g416
((lp550
S'84886582998'
p551
atp552
Rp553
sssg47
(dp554
g435
(dp555
g415
g416
((lp556
g438
ag501
ag502
atp557
Rp558
sssg49
(dp559
g413
(dp560
g415
g416
((lp561
g445
atp562
Rp563
sssg51
(dp564
g15
g414
sg21
g443
sg317
(dp565
g415
g416
((lp566
S'70349598059'
p567
aS'84860223856'
p568
aS'77952754186'
p569
atp570
Rp571
ssg223
(dp572
g415
g416
((lp573
g418
aS'78751649153'
p574
atp575
Rp576
ssS'7004102317'
p577
(dp578
g415
g416
((lp579
g569
atp580
Rp581
ssg163
(dp582
g415
g416
((lp583
S'36549023878'
p584
atp585
Rp586
ssg225
(dp587
g415
g416
((lp588
g418
atp589
Rp590
ssg235
(dp591
g415
g416
((lp592
g574
atp593
Rp594
ssg89
(dp595
g415
g416
((lp596
g584
atp597
Rp598
ssg49
g560
sg53
(dp599
g415
g416
((lp600
S'79953200798'
p601
atp602
Rp603
ssg253
(dp604
g415
g416
((lp605
g574
atp606
Rp607
ssg119
(dp608
g415
g416
((lp609
g445
atp610
Rp611
ssg369
(dp612
g415
g416
((lp613
g574
atp614
Rp615
ssg373
(dp616
g415
g416
((lp617
g418
atp618
Rp619
ssg271
(dp620
g415
g416
((lp621
g418
atp622
Rp623
ssg375
(dp624
g415
g416
((lp625
g584
aS'13844256207'
p626
ag568
ag567
atp627
Rp628
ssg179
(dp629
g415
g416
((lp630
g418
atp631
Rp632
ssg181
(dp633
g415
g416
((lp634
g418
atp635
Rp636
ssg79
(dp637
g415
g416
((lp638
g445
atp639
Rp640
ssg381
(dp641
g415
g416
((lp642
g584
atp643
Rp644
ssg287
(dp645
g415
g416
((lp646
g567
ag574
ag568
ag569
atp647
Rp648
ssg385
(dp649
g415
g416
((lp650
g418
atp651
Rp652
ssg85
(dp653
g415
g416
((lp654
g569
atp655
Rp656
ssg191
(dp657
g415
g416
((lp658
g418
atp659
Rp660
ssS'56240672400'
p661
(dp662
g415
g416
((lp663
g601
ag567
ag568
ag569
atp664
Rp665
ssg393
(dp666
g415
g416
((lp667
g567
ag418
ag568
ag569
ag574
atp668
Rp669
ssg401
(dp670
g415
g416
((lp671
g418
atp672
Rp673
ssg305
(dp674
g415
g416
((lp675
g569
atp676
Rp677
ssg405
(dp678
g415
g416
((lp679
g418
atp680
Rp681
sssg53
(dp682
g413
g599
sg421
(dp683
g415
g416
((lp684
g473
ag540
ag546
atp685
Rp686
ssg428
(dp687
g415
g416
((lp688
S'79953200798'
p689
atp690
Rp691
ssg435
(dp692
g415
g416
((lp693
S'84937960292'
p694
atp695
Rp696
sssg55
(dp697
g435
(dp698
g415
g416
((lp699
S'70849084018'
p700
aS'77953139553'
p701
atp702
Rp703
sssg57
(dp704
g435
(dp705
g415
g416
((lp706
g501
ag502
atp707
Rp708
sssg59
(dp709
g435
(dp710
g415
g416
((lp711
g694
atp712
Rp713
sssg61
(dp714
g428
(dp715
g415
g416
((lp716
S'84867925566'
p717
atp718
Rp719
ssg435
(dp720
g415
g416
((lp721
S'84867925566'
p722
atp723
Rp724
sssg63
(dp725
g435
(dp726
g415
g416
((lp727
S'67349155647'
p728
ag701
aS'79952605608'
p729
aS'84921973424'
p730
aS'38149085434'
p731
aS'84455189569'
p732
ag700
aS'84855687080'
p733
atp734
Rp735
sssg65
(dp736
g435
(dp737
g415
g416
((lp738
S'84882969740'
p739
atp740
Rp741
sssg67
(dp742
g428
(dp743
g415
g416
((lp744
S'84864287229'
p745
aS'38149015557'
p746
atp747
Rp748
ssg435
(dp749
g415
g416
((lp750
S'84864287229'
p751
aS'41749087116'
p752
aS'38149015557'
p753
atp754
Rp755
sssg69
(dp756
S'36117782600'
p757
g422
sS'6603259241'
p758
(dp759
g415
g416
((lp760
g424
atp761
Rp762
ssS'7005223038'
p763
g448
sg255
(dp764
g415
g416
((lp765
g540
atp766
Rp767
ssS'36118513000'
p768
(dp769
g415
g416
((lp770
g424
aS'84870595428'
p771
aS'84961373040'
p772
atp773
Rp774
ssS'7004102317'
p775
(dp776
g415
g416
((lp777
S'84897620666'
p778
ag474
aS'84867981757'
p779
aS'84883029526'
p780
ag508
aS'84939973084'
p781
aS'84926063092'
p782
aS'77950850685'
p783
aS'84883004734'
p784
aS'84867572214'
p785
aS'84893836569'
p786
aS'79953798251'
p787
aS'84892691931'
p788
atp789
Rp790
ssg201
(dp791
g415
g416
((lp792
g784
ag785
ag787
ag788
atp793
Rp794
ssg29
g471
sg123
(dp795
g415
g416
((lp796
S'84908190310'
p797
aS'84928486421'
p798
atp799
Rp800
ssg299
(dp801
g415
g416
((lp802
g778
ag450
ag780
ag781
ag782
ag785
ag784
ag787
ag788
atp803
Rp804
ssg117
(dp805
g415
g416
((lp806
g473
atp807
Rp808
ssS'7005508480'
p809
(dp810
g415
g416
((lp811
g424
atp812
Rp813
ssg35
g506
sg129
(dp814
g415
g416
((lp815
S'84926031858'
p816
atp817
Rp818
ssg231
(dp819
g415
g416
((lp820
g509
atp821
Rp822
ssg331
(dp823
g415
g416
((lp824
g797
ag798
ag772
ag782
aS'84869998883'
p825
aS'84919922003'
p826
atp827
Rp828
ssg397
(dp829
g415
g416
((lp830
g798
atp831
Rp832
ssg337
(dp833
g415
g416
((lp834
g797
atp835
Rp836
ssg73
(dp837
g415
g416
((lp838
S'84904102369'
p839
atp840
Rp841
ssg327
(dp842
g415
g416
((lp843
g772
atp844
Rp845
ssg43
g538
sg341
(dp846
g415
g416
((lp847
g785
ag787
atp848
Rp849
ssg45
g544
sg149
(dp850
g415
g416
((lp851
g474
atp852
Rp853
ssS'37111010900'
p854
g683
sg151
(dp855
g415
g416
((lp856
g473
ag509
atp857
Rp858
ssg349
(dp859
g415
g416
((lp860
g779
ag798
ag540
ag546
ag783
aS'84867281605'
p861
ag771
atp862
Rp863
ssS'55943170800'
p864
(dp865
g415
g416
((lp866
g771
atp867
Rp868
ssg353
(dp869
g415
g416
((lp870
g772
atp871
Rp872
ssS'55468916100'
p873
(dp874
g415
g416
((lp875
S'84870002444'
p876
aS'84879756093'
p877
atp878
Rp879
ssS'6507677219'
p880
(dp881
g415
g416
((lp882
g771
atp883
Rp884
ssg249
(dp885
g415
g416
((lp886
g797
atp887
Rp888
ssg263
(dp889
g415
g416
((lp890
g508
atp891
Rp892
ssg167
(dp893
g415
g416
((lp894
g780
ag778
ag861
ag781
atp895
Rp896
ssS'6507677833'
p897
(dp898
g415
g416
((lp899
g771
atp900
Rp901
ssg171
(dp902
g415
g416
((lp903
g797
ag546
ag508
ag509
ag825
ag861
atp904
Rp905
ssS'36117667600'
p906
(dp907
g415
g416
((lp908
g424
atp909
Rp910
ssS'6603865823'
p911
(dp912
g415
g416
((lp913
g424
atp914
Rp915
ssS'35566511400'
p916
(dp917
g415
g416
((lp918
g778
ag474
ag779
ag797
ag540
ag546
ag772
ag780
ag781
ag782
ag783
ag861
ag786
atp919
Rp920
ssg377
(dp921
g415
g416
((lp922
g816
atp923
Rp924
ssS'23388216300'
p925
(dp926
g415
g416
((lp927
g424
atp928
Rp929
ssg277
(dp930
g415
g416
((lp931
g780
ag781
atp932
Rp933
ssS'6506110957'
p934
(dp935
g415
g416
((lp936
g424
atp937
Rp938
ssS'6504765315'
p939
(dp940
g415
g416
((lp941
g424
atp942
Rp943
ssS'56240672400'
p944
(dp945
g415
g416
((lp946
g778
ag779
aS'84924004559'
p947
aS'84925067887'
p948
ag780
ag781
aS'84928490197'
p949
ag783
ag784
ag786
aS'84870035393'
p950
ag788
atp951
Rp952
ssg121
(dp953
g415
g416
((lp954
g797
atp955
Rp956
ssg195
(dp957
g415
g416
((lp958
g473
ag474
atp959
Rp960
ssg389
(dp961
g415
g416
((lp962
g772
atp963
Rp964
ssg321
(dp965
g415
g416
((lp966
g508
atp967
Rp968
ssS'7006733509'
p969
(dp970
g415
g416
((lp971
g424
ag782
ag771
ag772
atp972
Rp973
ssg205
(dp974
g415
g416
((lp975
g816
atp976
Rp977
ssg293
(dp978
g415
g416
((lp979
g771
atp980
Rp981
ssg209
(dp982
g415
g416
((lp983
g826
atp984
Rp985
ssg125
(dp986
g415
g416
((lp987
g473
atp988
Rp989
ssg211
(dp990
g415
g416
((lp991
g780
ag778
ag540
ag781
atp992
Rp993
ssg215
(dp994
g415
g416
((lp995
g782
atp996
Rp997
ssg93
(dp998
g415
g416
((lp999
g772
atp1000
Rp1001
ssg103
(dp1002
g415
g416
((lp1003
g785
ag787
atp1004
Rp1005
ssS'7006657985'
p1006
(dp1007
g415
g416
((lp1008
g424
atp1009
Rp1010
ssS'12645615700'
p1011
(dp1012
g415
g416
((lp1013
g778
ag779
ag780
ag781
ag783
ag784
ag785
ag786
ag787
ag788
atp1014
Rp1015
ssg105
(dp1016
g415
g416
((lp1017
g949
atp1018
Rp1019
ssS'6701488992'
p1020
(dp1021
g415
g416
((lp1022
g424
atp1023
Rp1024
ssg109
(dp1025
g415
g416
((lp1026
g947
ag948
atp1027
Rp1028
sssg71
(dp1029
g435
(dp1030
g415
g416
((lp1031
g438
ag439
atp1032
Rp1033
sssg73
(dp1034
g421
g837
ssg75
(dp1035
g435
(dp1036
g415
g416
((lp1037
S'84855645195'
p1038
atp1039
Rp1040
sssg77
(dp1041
g435
(dp1042
g415
g416
((lp1043
g500
ag439
atp1044
Rp1045
sssg79
(dp1046
g413
g637
ssg81
(dp1047
g435
(dp1048
g415
g416
((lp1049
g731
atp1050
Rp1051
sssg83
(dp1052
g435
(dp1053
g415
g416
((lp1054
S'84893413253'
p1055
aS'84867928625'
p1056
atp1057
Rp1058
sssg85
(dp1059
g413
g653
sg428
(dp1060
g415
g416
((lp1061
S'77952754186'
p1062
atp1063
Rp1064
ssg435
(dp1065
g415
g416
((lp1066
S'77952754186'
p1067
atp1068
Rp1069
sssg87
(dp1070
g428
(dp1071
g415
g416
((lp1072
S'33244474611'
p1073
ag717
aS'27844583930'
p1074
aS'34547237869'
p1075
aS'84867993693'
p1076
atp1077
Rp1078
ssg435
(dp1079
g415
g416
((lp1080
g722
aS'35248878783'
p1081
aS'0037268115'
p1082
aS'0036355625'
p1083
aS'84867974650'
p1084
ag456
ag501
ag521
aS'34547237869'
p1085
ag520
ag502
aS'0034825855'
p1086
aS'0141465284'
p1087
aS'27844583930'
p1088
aS'84867993693'
p1089
aS'33244474611'
p1090
aS'27644564296'
p1091
aS'83855164658'
p1092
aS'33244491912'
p1093
aS'84944048574'
p1094
atp1095
Rp1096
sssg89
(dp1097
g413
g595
ssg91
(dp1098
g435
(dp1099
g415
g416
((lp1100
S'0033548340'
p1101
atp1102
Rp1103
sssg93
(dp1104
g421
g998
sg435
(dp1105
g415
g416
((lp1106
S'84919952304'
p1107
aS'84926043075'
p1108
atp1109
Rp1110
sssg95
(dp1111
g428
(dp1112
g415
g416
((lp1113
g745
ag746
atp1114
Rp1115
ssg435
(dp1116
g415
g416
((lp1117
g751
ag753
atp1118
Rp1119
sssg97
(dp1120
g428
(dp1121
g415
g416
((lp1122
S'48549091782'
p1123
atp1124
Rp1125
ssg435
(dp1126
g415
g416
((lp1127
S'48549091782'
p1128
atp1129
Rp1130
sssg99
(dp1131
g428
(dp1132
g415
g416
((lp1133
g1123
aS'70849104788'
p1134
atp1135
Rp1136
ssg435
(dp1137
g415
g416
((lp1138
g1128
aS'70849104788'
p1139
atp1140
Rp1141
sssg101
(dp1142
g435
(dp1143
g415
g416
((lp1144
S'0008962904'
p1145
aS'35248889929'
p1146
aS'84861819449'
p1147
aS'70049093869'
p1148
aS'0345978898'
p1149
aS'84890553191'
p1150
aS'84961330419'
p1151
aS'84455187008'
p1152
aS'69949174819'
p1153
aS'67651183753'
p1154
ag732
aS'84882959649'
p1155
aS'0028076614'
p1156
ag730
aS'0040521319'
p1157
aS'0031534208'
p1158
aS'84886584690'
p1159
aS'2342642939'
p1160
atp1161
Rp1162
sssg103
(dp1163
g421
g1002
sg435
(dp1164
g415
g416
((lp1165
S'67650465553'
p1166
aS'84867572214'
p1167
aS'84961364377'
p1168
ag482
ag1159
aS'34547652765'
p1169
ag1154
aS'80053612586'
p1170
ag480
aS'84939966817'
p1171
ag479
aS'84900438862'
p1172
aS'34249870410'
p1173
aS'79953798251'
p1174
aS'84911454860'
p1175
atp1176
Rp1177
sssg105
(dp1178
g421
g1016
sg428
(dp1179
g415
g416
((lp1180
S'84928490197'
p1181
atp1182
Rp1183
sssg107
(dp1184
g435
(dp1185
g415
g416
((lp1186
g438
ag1155
atp1187
Rp1188
sssg109
(dp1189
g421
g1025
sg428
(dp1190
g415
g416
((lp1191
S'84924004559'
p1192
aS'84925067887'
p1193
aS'82955245618'
p1194
aS'84882450032'
p1195
atp1196
Rp1197
sssg111
(dp1198
g435
(dp1199
g415
g416
((lp1200
g730
atp1201
Rp1202
sssg113
(dp1203
g428
(dp1204
g415
g416
((lp1205
g745
ag746
atp1206
Rp1207
ssg435
(dp1208
g415
g416
((lp1209
g1147
ag751
ag1152
ag753
aS'35349000609'
p1210
atp1211
Rp1212
sssg115
(dp1213
g435
(dp1214
g415
g416
((lp1215
g694
atp1216
Rp1217
sssg117
(dp1218
g421
g805
ssg119
(dp1219
g413
g608
ssg121
(dp1220
g421
g953
ssg123
(dp1221
g421
g795
sg428
(dp1222
g415
g416
((lp1223
g1123
ag1134
atp1224
Rp1225
ssg435
(dp1226
g415
g416
((lp1227
g1128
ag1139
atp1228
Rp1229
sssg125
(dp1230
g421
g986
ssg127
(dp1231
g435
(dp1232
g415
g416
((lp1233
g1146
atp1234
Rp1235
sssg129
(dp1236
g421
g814
ssg131
(dp1237
g435
(dp1238
g415
g416
((lp1239
S'84961298945'
p1240
atp1241
Rp1242
sssg133
(dp1243
g435
(dp1244
g415
g416
((lp1245
S'84924664076'
p1246
atp1247
Rp1248
sssg135
(dp1249
g435
(dp1250
g415
g416
((lp1251
S'84951943537'
p1252
atp1253
Rp1254
sssg137
(dp1255
g435
(dp1256
g415
g416
((lp1257
g1240
ag1155
atp1258
Rp1259
sssg139
(dp1260
g435
(dp1261
g415
g416
((lp1262
g739
atp1263
Rp1264
sssg141
(dp1265
g435
(dp1266
g415
g416
((lp1267
S'84921891873'
p1268
aS'84901936133'
p1269
aS'84955667486'
p1270
atp1271
Rp1272
sssg143
(dp1273
g435
(dp1274
g415
g416
((lp1275
g1145
ag1149
atp1276
Rp1277
sssg145
(dp1278
g428
(dp1279
g415
g416
((lp1280
S'78649542194'
p1281
atp1282
Rp1283
sssg147
(dp1284
g435
(dp1285
g415
g416
((lp1286
g501
ag502
atp1287
Rp1288
sssg149
(dp1289
g421
g850
sg435
(dp1290
g415
g416
((lp1291
g481
atp1292
Rp1293
sssg151
(dp1294
g421
g855
sg435
(dp1295
g415
g416
((lp1296
g1268
ag1269
ag1270
aS'84904428979'
p1297
atp1298
Rp1299
sssg153
(dp1300
g435
(dp1301
g415
g416
((lp1302
S'34247480611'
p1303
atp1304
Rp1305
sssg155
(dp1306
g428
(dp1307
g415
g416
((lp1308
g1123
ag1134
atp1309
Rp1310
ssg435
(dp1311
g415
g416
((lp1312
g1128
ag1139
atp1313
Rp1314
sssg157
(dp1315
g435
(dp1316
g415
g416
((lp1317
g728
ag701
ag730
ag733
ag732
ag700
ag1038
atp1318
Rp1319
sssg159
(dp1320
g428
(dp1321
g415
g416
((lp1322
S'84959335112'
p1323
ag717
ag1074
aS'33751182068'
p1324
atp1325
Rp1326
ssg435
(dp1327
g415
g416
((lp1328
g1081
ag1082
ag1091
ag729
ag456
aS'0036368049'
p1329
ag1094
ag733
ag732
ag1148
ag1084
ag1157
ag1170
ag1210
aS'31244436526'
p1330
ag1149
ag730
aS'0030644881'
p1331
aS'84893402289'
p1332
ag700
aS'37249003321'
p1333
ag1172
ag1145
ag722
ag728
ag1083
ag1101
ag1160
aS'1142300704'
p1334
aS'0030369562'
p1335
aS'67549140323'
p1336
ag520
ag1088
aS'33751182068'
p1337
aS'33748071467'
p1338
ag731
ag1087
aS'84948972138'
p1339
ag701
ag521
ag1086
ag534
aS'0033447107'
p1340
aS'84959335112'
p1341
atp1342
Rp1343
sssg161
(dp1344
g428
(dp1345
g415
g416
((lp1346
S'84947785823'
p1347
atp1348
Rp1349
sssg163
(dp1350
g413
g582
ssg165
(dp1351
g428
(dp1352
g415
g416
((lp1353
S'56049114659'
p1354
atp1355
Rp1356
sssg167
(dp1357
g421
g893
sg428
(dp1358
g415
g416
((lp1359
S'84883029526'
p1360
aS'84897620666'
p1361
aS'84939973084'
p1362
ag551
atp1363
Rp1364
ssg435
(dp1365
g415
g416
((lp1366
S'84883029526'
p1367
aS'84897620666'
p1368
aS'84939973084'
p1369
atp1370
Rp1371
sssg169
(dp1372
g435
(dp1373
g415
g416
((lp1374
g1158
ag1156
atp1375
Rp1376
sssg171
(dp1377
g421
g902
sg428
(dp1378
g415
g416
((lp1379
S'84882828275'
p1380
atp1381
Rp1382
ssg435
(dp1383
g415
g416
((lp1384
g514
atp1385
Rp1386
sssg173
(dp1387
g435
(dp1388
g415
g416
((lp1389
g1329
ag1334
ag438
atp1390
Rp1391
sssg175
(dp1392
g435
(dp1393
g415
g416
((lp1394
S'78651470797'
p1395
atp1396
Rp1397
sssg177
(dp1398
g435
(dp1399
g415
g416
((lp1400
g1268
ag1269
ag1270
atp1401
Rp1402
sssg179
(dp1403
g413
g629
sg421
g926
ssg181
(dp1404
g413
g633
sg421
g759
sg428
(dp1405
g415
g416
((lp1406
g551
atp1407
Rp1408
sssg183
(dp1409
g428
(dp1410
g415
g416
((lp1411
g1134
atp1412
Rp1413
ssg435
(dp1414
g415
g416
((lp1415
g1139
atp1416
Rp1417
sssg185
(dp1418
g435
(dp1419
g415
g416
((lp1420
g1252
atp1421
Rp1422
sssg187
(dp1423
g435
(dp1424
g415
g416
((lp1425
g732
atp1426
Rp1427
sssg189
(dp1428
g435
(dp1429
g415
g416
((lp1430
g1157
atp1431
Rp1432
sssg191
(dp1433
g413
g657
sg421
g940
sg435
(dp1434
g415
g416
((lp1435
g1268
ag1269
ag1270
atp1436
Rp1437
sssg193
(dp1438
g307
(dp1439
g415
g416
((lp1440
g1281
ag1195
ag1194
atp1441
Rp1442
ssg309
(dp1443
g415
g416
((lp1444
g745
ag746
atp1445
Rp1446
ssg17
g429
sS'6603259241'
p1447
g1405
sg113
g1204
sS'56013731100'
p1448
g549
sS'55468916100'
p1449
(dp1450
g415
g416
((lp1451
g1062
ag1123
aS'84860223856'
p1452
aS'70349598059'
p1453
ag1134
atp1454
Rp1455
ssg365
(dp1456
g415
g416
((lp1457
S'84924301664'
p1458
atp1459
Rp1460
ssg775
(dp1461
g415
g416
((lp1462
g1361
ag1075
ag1360
ag1076
aS'84893836569'
p1463
aS'84892691931'
p1464
aS'77950842183'
p1465
aS'77950850685'
p1466
ag1073
aS'84883004734'
p1467
ag746
ag717
ag745
ag1134
ag1062
ag1123
ag488
ag1362
ag1074
ag1324
aS'84867981757'
p1468
ag1323
atp1469
Rp1470
ssg281
(dp1471
g415
g416
((lp1472
g1123
ag1134
atp1473
Rp1474
ssS'12646275800'
p1475
g1222
sg299
(dp1476
g415
g416
((lp1477
g1361
ag717
ag1360
ag1362
ag1465
ag1075
ag1073
ag1323
ag1467
ag1464
atp1478
Rp1479
ssg31
g486
sS'6602520528'
p1480
(dp1481
g415
g416
((lp1482
S'84892155684'
p1483
aS'84867956378'
p1484
aS'34547731854'
p1485
atp1486
Rp1487
ssg329
(dp1488
g415
g416
((lp1489
g1281
ag488
atp1490
Rp1491
ssg335
(dp1492
g415
g416
((lp1493
g1195
aS'77951521884'
p1494
ag1194
aS'84858794182'
p1495
atp1496
Rp1497
ssg241
(dp1498
g415
g416
((lp1499
g717
atp1500
Rp1501
ssg145
g1279
sS'24512697200'
p1502
(dp1503
g415
g416
((lp1504
g551
atp1505
Rp1506
ssS'54792735300'
p1507
(dp1508
g415
g416
((lp1509
g1380
atp1510
Rp1511
ssg413
g662
sg53
g687
sS'56013629200'
p1512
(dp1513
g415
g416
((lp1514
g1468
ag1466
atp1515
Rp1516
ssg351
(dp1517
g415
g416
((lp1518
g1123
ag1134
atp1519
Rp1520
ssg61
g715
sg155
g1307
sS'15740951000'
p1521
(dp1522
g415
g416
((lp1523
g1483
ag1484
ag1485
ag1134
ag1123
atp1524
Rp1525
ssg357
(dp1526
g415
g416
((lp1527
S'84961832259'
p1528
aS'84923991784'
p1529
ag1347
atp1530
Rp1531
ssg67
g743
sg159
g1321
sg421
g945
sg261
(dp1532
g415
g416
((lp1533
g431
atp1534
Rp1535
ssg167
g1358
sg161
g1345
sS'8847635500'
p1536
g1378
sg371
(dp1537
g415
g416
((lp1538
g1528
ag1529
atp1539
Rp1540
ssg85
g1060
sg916
(dp1541
g415
g416
((lp1542
g1361
ag1134
ag551
ag1468
ag1123
ag1452
ag1360
ag1380
ag1362
ag1466
ag1453
ag1463
atp1543
Rp1544
ssg277
(dp1545
g415
g416
((lp1546
g1360
ag1484
ag1362
ag1485
atp1547
Rp1548
ssg183
g1410
sg285
(dp1549
g415
g416
((lp1550
g1123
ag1134
atp1551
Rp1552
ssg87
g1071
sS'26635008000'
p1553
(dp1554
g415
g416
((lp1555
g1062
ag1452
ag1453
atp1556
Rp1557
ssg295
(dp1558
g415
g416
((lp1559
g488
ag745
ag746
atp1560
Rp1561
ssg95
g1112
sg201
(dp1562
g415
g416
((lp1563
g1323
ag1467
ag1464
atp1564
Rp1565
ssS'7006733509'
p1566
(dp1567
g415
g416
((lp1568
g717
ag431
ag1134
ag1062
ag1075
ag1484
ag1354
ag1123
ag1452
ag1465
ag1453
ag1073
ag1483
ag1485
atp1569
Rp1570
ssg97
g1121
sg99
g1132
sg165
g1352
sg211
(dp1571
g415
g416
((lp1572
g1360
ag1361
ag1362
atp1573
Rp1574
ssg1011
(dp1575
g415
g416
((lp1576
g1323
ag1361
ag745
ag1062
ag717
ag1360
ag1362
ag1465
ag1466
ag1075
ag1324
ag1073
ag1468
ag1467
ag1463
ag746
ag1464
atp1577
Rp1578
ssg105
g1179
sS'8931919100'
p1579
g1190
ssg195
(dp1580
g421
g957
sg435
(dp1581
g415
g416
((lp1582
g481
atp1583
Rp1584
sssg197
(dp1585
g435
(dp1586
g415
g416
((lp1587
S'84893355167'
p1588
ag1268
ag1107
aS'84926016090'
p1589
aS'84929854243'
p1590
aS'84904269039'
p1591
ag1270
aS'84865630120'
p1592
ag1269
ag1108
atp1593
Rp1594
sssg199
(dp1595
g435
(dp1596
g415
g416
((lp1597
g1107
ag1589
ag1108
atp1598
Rp1599
sssg201
(dp1600
g421
g791
sg428
g1562
sg435
(dp1601
g415
g416
((lp1602
g1588
aS'84878541092'
p1603
ag1153
aS'84976902795'
p1604
ag1171
aS'84938587993'
p1605
ag1108
ag1590
aS'84884343070'
p1606
ag1150
ag1591
aS'84928487290'
p1607
ag1297
ag1592
aS'84883004734'
p1608
aS'84892691931'
p1609
ag1107
aS'84938985962'
p1610
aS'84890115485'
p1611
ag1341
ag1589
ag528
ag1167
ag1172
ag1174
atp1612
Rp1613
sssg203
(dp1614
g435
(dp1615
g415
g416
((lp1616
g1604
atp1617
Rp1618
sssg205
(dp1619
g421
g974
ssg207
(dp1620
g435
(dp1621
g415
g416
((lp1622
g1252
ag739
aS'84926064647'
p1623
atp1624
Rp1625
sssg209
(dp1626
g421
g982
ssg211
(dp1627
g421
g990
sg428
g1571
sg435
(dp1628
g415
g416
((lp1629
g1367
ag1368
ag1369
atp1630
Rp1631
sssg213
(dp1632
g435
(dp1633
g415
g416
((lp1634
g1145
ag1149
atp1635
Rp1636
sssg215
(dp1637
g421
g994
sg435
(dp1638
g415
g416
((lp1639
S'84926063092'
p1640
atp1641
Rp1642
sssg217
(dp1643
g435
(dp1644
g415
g416
((lp1645
g729
ag731
atp1646
Rp1647
sssg219
(dp1648
g435
(dp1649
g415
g416
((lp1650
g528
atp1651
Rp1652
sssg221
(dp1653
g435
(dp1654
g415
g416
((lp1655
g1252
atp1656
Rp1657
sssg223
(dp1658
g413
g572
sg421
g769
sg435
(dp1659
g415
g416
((lp1660
g1607
atp1661
Rp1662
sssg225
(dp1663
g413
g587
sg421
g810
sg435
(dp1664
g415
g416
((lp1665
g501
ag438
ag1170
ag1155
ag500
ag502
ag439
ag1240
atp1666
Rp1667
sssg227
(dp1668
g435
(dp1669
g415
g416
((lp1670
g1240
atp1671
Rp1672
sssg229
(dp1673
g435
(dp1674
g415
g416
((lp1675
g739
atp1676
Rp1677
sssg231
(dp1678
g421
g819
ssg233
(dp1679
g435
(dp1680
g415
g416
((lp1681
S'82955251620'
p1682
atp1683
Rp1684
sssg235
(dp1685
g413
g591
sg421
g881
sg435
(dp1686
g415
g416
((lp1687
g482
ag480
ag479
ag1682
ag1168
ag1175
atp1688
Rp1689
sssg237
(dp1690
g435
(dp1691
g415
g416
((lp1692
S'31344463158'
p1693
atp1694
Rp1695
sssg239
(dp1696
g435
(dp1697
g415
g416
((lp1698
g1166
ag1173
ag1169
atp1699
Rp1700
sssg241
(dp1701
g428
g1498
sg435
(dp1702
g415
g416
((lp1703
g722
atp1704
Rp1705
sssg243
(dp1706
g435
(dp1707
g415
g416
((lp1708
g1148
ag462
atp1709
Rp1710
sssg245
(dp1711
g435
(dp1712
g415
g416
((lp1713
g1331
atp1714
Rp1715
sssg247
(dp1716
g435
(dp1717
g415
g416
((lp1718
g1157
atp1719
Rp1720
sssg249
(dp1721
g421
g885
sg428
g1503
ssg251
(dp1722
g435
(dp1723
g415
g416
((lp1724
g1157
ag1160
atp1725
Rp1726
sssg253
(dp1727
g413
g604
sg421
g865
sg435
(dp1728
g415
g416
((lp1729
g500
ag1171
atp1730
Rp1731
sssg255
(dp1732
g421
g764
sg428
g1508
ssg257
(dp1733
g435
(dp1734
g415
g416
((lp1735
g1268
ag1270
atp1736
Rp1737
sssg259
(dp1738
g435
(dp1739
g415
g416
((lp1740
g534
ag1148
atp1741
Rp1742
sssg261
(dp1743
g428
g1532
sg435
(dp1744
g415
g416
((lp1745
S'4344678617'
p1746
atp1747
Rp1748
sssg263
(dp1749
g421
g889
sg435
(dp1750
g415
g416
((lp1751
g514
atp1752
Rp1753
sssg265
(dp1754
g435
(dp1755
g415
g416
((lp1756
g456
atp1757
Rp1758
sssg267
(dp1759
g435
(dp1760
g415
g416
((lp1761
g462
atp1762
Rp1763
sssg269
(dp1764
g435
(dp1765
g415
g416
((lp1766
g1240
ag1155
atp1767
Rp1768
sssg271
(dp1769
g413
g620
sg421
g912
sg435
(dp1770
g415
g416
((lp1771
g1240
ag1155
atp1772
Rp1773
sssg273
(dp1774
g435
(dp1775
g415
g416
((lp1776
g1107
atp1777
Rp1778
sssg275
(dp1779
g435
(dp1780
g415
g416
((lp1781
g534
atp1782
Rp1783
sssg277
(dp1784
g421
g930
sg428
g1545
sg435
(dp1785
g415
g416
((lp1786
g1367
ag1172
ag1369
ag1107
ag527
atp1787
Rp1788
sssg279
(dp1789
g435
(dp1790
g415
g416
((lp1791
g1268
ag1269
ag1270
atp1792
Rp1793
sssg281
(dp1794
g428
g1471
sg435
(dp1795
g415
g416
((lp1796
g1128
ag1139
atp1797
Rp1798
sssg283
(dp1799
g435
(dp1800
g415
g416
((lp1801
g534
ag1148
atp1802
Rp1803
sssg285
(dp1804
g428
g1549
sg435
(dp1805
g415
g416
((lp1806
g1128
ag1139
ag1155
atp1807
Rp1808
sssg287
(dp1809
g413
g645
sg428
g1554
sg435
(dp1810
g415
g416
((lp1811
g1067
atp1812
Rp1813
sssg289
(dp1814
g435
(dp1815
g415
g416
((lp1816
g694
atp1817
Rp1818
sssg291
(dp1819
g435
(dp1820
g415
g416
((lp1821
g1145
ag1149
atp1822
Rp1823
sssg293
(dp1824
g421
g978
sg435
(dp1825
g415
g416
((lp1826
g500
ag438
atp1827
Rp1828
sssg295
(dp1829
g428
g1558
sg435
(dp1830
g415
g416
((lp1831
g1146
ag494
ag752
ag1589
ag1084
ag1150
ag1153
ag1154
ag1604
ag493
ag751
ag1332
ag1159
ag753
atp1832
Rp1833
sssg297
(dp1834
g435
(dp1835
g415
g416
((lp1836
g1246
ag1611
ag1603
atp1837
Rp1838
sssg299
(dp1839
g421
g801
sg428
g1476
sg435
(dp1840
g415
g416
((lp1841
g1588
ag1368
ag1085
aS'84870039666'
p1842
ag1153
ag1367
ag1604
ag1171
ag1605
ag1168
ag1609
ag1590
aS'84982223782'
p1843
ag1150
ag1252
ag1591
ag1607
aS'77950842183'
p1844
ag1297
ag1592
ag1090
ag1608
ag1108
ag722
ag1107
aS'84915733671'
p1845
ag1369
ag1640
ag1172
ag1623
ag1167
aS'84882973929'
p1846
ag1341
aS'84887190108'
p1847
ag1174
atp1848
Rp1849
sssg301
(dp1850
g435
(dp1851
g415
g416
((lp1852
g739
atp1853
Rp1854
sssg303
(dp1855
g435
(dp1856
g415
g416
((lp1857
g1331
ag1340
atp1858
Rp1859
sssg305
(dp1860
g413
g674
sg421
g1012
sg428
g1575
sg435
(dp1861
g415
g416
((lp1862
g1588
ag1368
ag731
ag1085
ag1842
ag1153
ag1154
ag1367
ag1604
ag751
ag1171
ag1605
ag1159
aS'84893836569'
p1863
ag1609
ag1590
ag1843
ag1150
ag1252
ag739
ag1607
ag1844
ag1297
ag1332
ag1090
ag1608
ag1108
ag753
ag1172
ag722
ag728
ag1107
ag1333
ag1067
ag1395
ag1845
ag1369
ag1337
ag729
ag1338
ag700
ag1038
aS'84867981757'
p1864
ag1589
ag701
aS'77950850685'
p1865
ag1623
ag694
ag1167
ag1846
ag1341
ag1174
atp1866
Rp1867
sssg307
(dp1868
g428
g1439
sg435
(dp1869
g415
g416
((lp1870
g1166
ag1173
ag752
ag1154
ag1607
ag1169
ag1159
atp1871
Rp1872
sssg309
(dp1873
g428
g1443
sg435
(dp1874
g415
g416
((lp1875
g751
ag1150
ag1151
ag1153
ag753
ag1240
atp1876
Rp1877
sssg311
(dp1878
g435
(dp1879
g415
g416
((lp1880
g1395
atp1881
Rp1882
sssg313
(dp1883
g435
(dp1884
g415
g416
((lp1885
g1605
ag1845
ag1843
atp1886
Rp1887
sssg315
(dp1888
g435
(dp1889
g415
g416
((lp1890
g1148
atp1891
Rp1892
sssg317
(dp1893
g413
g565
sg421
g874
sg428
g1450
sg435
(dp1894
g415
g416
((lp1895
g1128
ag1139
ag1067
atp1896
Rp1897
sssg319
(dp1898
S'56279187000'
p1899
g1825
sg321
(dp1900
g415
g416
((lp1901
g514
atp1902
Rp1903
ssg19
g436
sg23
g454
sg27
g466
sS'55993686500'
p1904
g477
sg31
g491
sg33
g498
sg35
g512
sg37
g518
sg39
g525
sg41
g532
sg47
g555
sg413
g578
sS'37111010900'
p1905
g692
sg55
g698
sg57
g705
sg59
g710
sg61
g720
sg63
g726
sg65
g737
sS'54790591400'
p1906
g749
sg421
g776
sg71
g1030
sg75
g1036
sg77
g1042
sg155
g1311
sg81
g1048
sg83
g1053
sg85
g1065
sS'15740951000'
p1907
(dp1908
g415
g416
((lp1909
g1128
ag1139
atp1910
Rp1911
ssg91
g1099
sS'23398643600'
p1912
g1105
sS'6602600705'
p1913
g1116
sg97
g1126
sg99
g1137
sg101
g1143
sS'7103233117'
p1914
g1164
sg107
g1185
sg111
g1199
sS'12645109800'
p1915
g1208
sg115
g1214
sg1475
g1226
sg299
g1840
sg127
g1232
sg131
g1238
sg133
g1244
sg135
g1250
sg311
g1879
sg139
g1261
sg143
g1274
sg147
g1285
sg149
g1290
sS'7003988000'
p1916
g1295
sg141
g1266
sg157
g1316
sS'6604079529'
p1917
g1327
sg167
g1365
sg153
g1301
sS'8847635500'
p1918
g1383
sg173
g1388
sg177
g1399
sg183
g1414
sg185
g1419
sg189
g1429
sS'6504765315'
p1919
g1434
sg428
g1461
sg297
g1835
sg197
g1586
sg199
g1596
sS'34870304900'
p1920
g1601
sg203
g1615
sg207
g1621
sg211
g1628
sg213
g1633
sg215
g1638
sg217
g1644
sg219
g1649
sg221
g1654
sS'36118513000'
p1921
g1659
sS'7005508480'
p1922
g1664
sg227
g1669
sg229
g1674
sg233
g1680
sS'6507677219'
p1923
g1686
sg237
g1691
sg239
g1697
sg241
g1702
sg243
g1707
sg245
g1712
sg247
g1717
sg259
g1739
sg251
g1723
sS'55943170800'
p1924
g1728
sg257
g1734
sS'7006843785'
p1925
g1744
sg263
g1750
sg265
g1755
sg267
g1760
sg269
g1765
sS'6603865823'
p1926
g1770
sg273
g1775
sg275
g1780
sS'7004109104'
p1927
g1785
sg279
g1790
sg283
g1800
sg285
g1805
sg287
g1810
sg289
g1815
sg291
g1820
sg175
g1393
sS'15053820000'
p1928
g1830
sS'56002701400'
p1929
g1581
sg187
g1424
sg301
g1851
sg303
g1856
sg1011
g1861
sS'57188785706'
p1930
g1869
sS'35398324200'
p1931
g1874
sg25
g460
sg313
g1884
sg315
g1889
sS'55468916100'
p1932
g1894
sg281
g1795
sg323
(dp1933
g415
g416
((lp1934
g1269
atp1935
Rp1936
ssg325
(dp1937
g415
g416
((lp1938
g1108
atp1939
Rp1940
ssS'22934931200'
p1941
(dp1942
g415
g416
((lp1943
g493
ag494
atp1944
Rp1945
ssS'26032291700'
p1946
(dp1947
g415
g416
((lp1948
g1640
atp1949
Rp1950
ssg367
(dp1951
g415
g416
((lp1952
g1606
ag528
ag1610
atp1953
Rp1954
ssg379
(dp1955
g415
g416
((lp1956
g1605
ag1845
ag1843
atp1957
Rp1958
ssg339
(dp1959
g415
g416
((lp1960
g456
atp1961
Rp1962
ssS'7003955521'
p1963
(dp1964
g415
g416
((lp1965
g1151
ag1589
ag1174
ag1167
atp1966
Rp1967
ssg343
(dp1968
g415
g416
((lp1969
g534
atp1970
Rp1971
ssg345
(dp1972
g415
g416
((lp1973
g729
ag728
ag700
ag701
atp1974
Rp1975
ssg347
(dp1976
g415
g416
((lp1977
g1147
ag1159
ag1152
ag1154
ag1155
atp1978
Rp1979
ssS'56013629200'
p1980
(dp1981
g415
g416
((lp1982
g1864
ag1865
atp1983
Rp1984
ssg351
(dp1985
g415
g416
((lp1986
g1128
ag1139
atp1987
Rp1988
ssS'6603448482'
p1989
g1079
sg355
(dp1990
g415
g416
((lp1991
g494
ag1210
atp1992
Rp1993
ssg359
(dp1994
g415
g416
((lp1995
g1157
atp1996
Rp1997
ssg361
(dp1998
g415
g416
((lp1999
g1331
ag1340
atp2000
Rp2001
ssg363
(dp2002
g415
g416
((lp2003
g1331
ag1340
atp2004
Rp2005
ssS'6507677833'
p2006
(dp2007
g415
g416
((lp2008
g482
ag480
ag479
ag1682
ag1168
ag1175
atp2009
Rp2010
ssg395
(dp2011
g415
g416
((lp2012
g456
atp2013
Rp2014
ssg169
g1373
sg916
(dp2015
g415
g416
((lp2016
g1368
ag1139
ag1864
ag1863
ag1128
ag1170
ag694
ag502
ag1367
ag1369
ag1640
ag1865
ag1172
ag1847
ag501
ag481
atp2017
Rp2018
ssg137
g1256
sS'7005243259'
p2019
(dp2020
g415
g416
((lp2021
g1682
ag1175
atp2022
Rp2023
ssg383
(dp2024
g415
g416
((lp2025
g1395
atp2026
Rp2027
ssS'6506110957'
p2028
(dp2029
g415
g416
((lp2030
g1240
ag1155
atp2031
Rp2032
ssg387
(dp2033
g415
g416
((lp2034
g438
ag439
atp2035
Rp2036
ssg391
(dp2037
g415
g416
((lp2038
g1589
atp2039
Rp2040
ssS'7006733509'
p2041
(dp2042
g415
g416
((lp2043
g722
ag1107
ag1139
ag1067
ag1085
ag439
ag1128
ag1170
ag1155
ag1844
ag1640
ag1746
ag1693
ag1090
ag1172
ag1330
ag502
ag501
ag1082
ag1094
ag1108
atp2044
Rp2045
ssg333
(dp2046
g415
g416
((lp2047
g1055
ag1056
atp2048
Rp2049
ssg399
(dp2050
g415
g416
((lp2051
g462
atp2052
Rp2053
ssS'7006657985'
p2054
(dp2055
g415
g416
((lp2056
g527
ag1107
ag1108
atp2057
Rp2058
ssg403
(dp2059
g415
g416
((lp2060
g438
atp2061
Rp2062
ssS'6701488992'
p2063
(dp2064
g415
g416
((lp2065
g527
atp2066
Rp2067
sssg321
(dp2068
g421
g965
sg435
g1900
ssg323
(dp2069
g435
g1933
ssg325
(dp2070
g435
g1937
ssg327
(dp2071
g421
g842
sg428
g1481
ssg329
(dp2072
g428
g1488
sg435
g1942
ssg331
(dp2073
g421
g823
sg435
g1947
ssg333
(dp2074
g435
g2046
ssg335
(dp2075
g428
g1492
ssg337
(dp2076
g421
g833
ssg339
(dp2077
g435
g1959
ssg341
(dp2078
g421
g846
sg435
g1964
ssg343
(dp2079
g435
g1968
ssg345
(dp2080
g435
g1972
ssg347
(dp2081
g435
g1976
ssg349
(dp2082
g421
g859
sg428
g1513
sg435
g1981
ssg351
(dp2083
g428
g1517
sg435
g1985
ssg353
(dp2084
g421
g869
sg428
g1522
sg435
g1908
ssg355
(dp2085
g435
g1990
ssg357
(dp2086
g428
g1526
ssg359
(dp2087
g435
g1994
ssg361
(dp2088
g435
g1998
ssg363
(dp2089
g435
g2002
ssg365
(dp2090
g428
g1456
ssg367
(dp2091
g435
g1951
ssg369
(dp2092
g413
g612
sg421
g898
sg435
g2007
ssg371
(dp2093
g428
g1537
ssg373
(dp2094
g413
g616
sg421
g907
ssg375
(dp2095
g413
g624
sg421
g917
sg428
g1541
sg435
g2015
ssg377
(dp2096
g421
g921
ssg379
(dp2097
g435
g1955
ssg381
(dp2098
g413
g641
sg435
g2020
ssg383
(dp2099
g435
g2024
ssg385
(dp2100
g413
g649
sg421
g935
sg435
g2029
ssg387
(dp2101
g435
g2033
ssg389
(dp2102
g421
g961
ssg391
(dp2103
g435
g2037
ssg393
(dp2104
g413
g666
sg421
g970
sg428
g1567
sg435
g2042
ssg395
(dp2105
g435
g2011
ssg397
(dp2106
g421
g829
ssg399
(dp2107
g435
g2050
ssg401
(dp2108
g413
g670
sg421
g1007
sg435
g2055
ssg403
(dp2109
g435
g2059
ssg405
(dp2110
g413
g678
sg421
g1021
sg435
g2064
sssS'graph'
p2111
(dp2112
sS'adjlist_dict_factory'
p2113
g408
sS'adj'
p2114
g411
sbsS'core_names'
p2115
(lp2116
S'Ruy, Fabila'
p2117
aS'Clemens, Huemer'
p2118
aS'Oswin, Aichholzer'
p2119
asS'paper_info'
p2120
(dp2121
sS'current_paper'
p2122
I0
sS'current_author'
p2123
I0
sS'computed_distance'
p2124
I0
sS'core_ids'
p2125
(lp2126
V56240672400
p2127
aV56013555800
p2128
aV16635924700
p2129
aV56240672400
p2130
aV56013555800
p2131
aV16635924700
p2132
aV7004102317
p2133
asS'core_name_IDS'
p2134
(dp2135
g2118
(lp2136
g2130
asg2117
(lp2137
g2131
ag2132
asg2119
(lp2138
g2133
assS'nodes_by_distance'
p2139
(lp2140
g416
((lp2141
g413
ag421
ag428
ag435
atp2142
Rp2143
ag416
((lp2144
g15
ag17
ag19
ag21
ag23
ag25
ag27
ag29
ag31
ag33
ag35
ag37
ag39
ag41
ag43
ag45
ag47
ag49
ag53
ag55
ag57
ag59
ag61
ag63
ag65
ag67
ag71
ag73
ag75
ag77
ag79
ag81
ag83
ag85
ag87
ag89
ag91
ag93
ag95
ag97
ag99
ag101
ag103
ag105
ag107
ag109
ag111
ag113
ag115
ag117
ag119
ag121
ag123
ag125
ag127
ag129
ag131
ag133
ag135
ag137
ag139
ag141
ag143
ag145
ag147
ag149
ag151
ag153
ag155
ag157
ag159
ag161
ag163
ag165
ag167
ag169
ag171
ag173
ag175
ag177
ag179
ag181
ag183
ag185
ag187
ag189
ag191
ag195
ag197
ag199
ag201
ag203
ag205
ag207
ag209
ag211
ag213
ag215
ag217
ag219
ag221
ag223
ag225
ag227
ag229
ag231
ag233
ag235
ag237
ag239
ag241
ag243
ag245
ag247
ag249
ag251
ag253
ag255
ag257
ag259
ag261
ag263
ag265
ag267
ag269
ag271
ag273
ag275
ag277
ag279
ag281
ag283
ag285
ag287
ag289
ag291
ag293
ag295
ag297
ag299
ag301
ag303
ag305
ag307
ag309
ag311
ag313
ag315
ag317
ag321
ag323
ag325
ag327
ag329
ag331
ag333
ag335
ag337
ag339
ag341
ag343
ag345
ag347
ag349
ag351
ag353
ag355
ag357
ag359
ag361
ag363
ag365
ag367
ag369
ag371
ag373
ag375
ag377
ag379
ag381
ag383
ag385
ag387
ag389
ag391
ag393
ag395
ag397
ag399
ag401
ag403
ag405
atp2145
Rp2146
asb.